; Function Attrs: mustprogress uwtable
define internal noundef i32 @"_ZZ20setupUserdataHelpersP9lua_StateEN3$_18__invokeES0_"(ptr noundef %0) #4 align 2 {
  %2 = tail call noundef ptr @_Z20lua_touserdatataggedP9lua_Stateii(ptr noundef %0, i32 noundef 1, i32 noundef 12)
  %.not.i.i = icmp eq ptr %2, null
  br i1 %.not.i.i, label %3, label %_Z12lua_vec2_getP9lua_Statei.exit.i

3:                                                ; preds = %1
  tail call void @_Z15luaL_typeerrorLP9lua_StateiPKc(ptr noundef %0, i32 noundef 1, ptr noundef nonnull @.str.56) #34
  unreachable

_Z12lua_vec2_getP9lua_Statei.exit.i:              ; preds = %1
  %4 = tail call noundef ptr @_Z20lua_touserdatataggedP9lua_Stateii(ptr noundef %0, i32 noundef 2, i32 noundef 12)
  %.not.i9.i = icmp eq ptr %4, null
  br i1 %.not.i9.i, label %5, label %"_ZZ20setupUserdataHelpersP9lua_StateENK3$_1clES0_.exit"

5:                                                ; preds = %_Z12lua_vec2_getP9lua_Statei.exit.i
  tail call void @_Z15luaL_typeerrorLP9lua_StateiPKc(ptr noundef %0, i32 noundef 2, ptr noundef nonnull @.str.56) #34
  unreachable

"_ZZ20setupUserdataHelpersP9lua_StateENK3$_1clES0_.exit": ; preds = %_Z12lua_vec2_getP9lua_Statei.exit.i
  %6 = tail call noundef ptr @_Z21lua_newuserdatataggedP9lua_Statemi(ptr noundef %0, i64 noundef 8, i32 noundef 12)
  tail call void @_Z24lua_getuserdatametatableP9lua_Statei(ptr noundef %0, i32 noundef 12)
  %7 = tail call noundef i32 @_Z16lua_setmetatableP9lua_Statei(ptr noundef %0, i32 noundef -2)
  %8 = load float, ptr %2, align 4
  %9 = load float, ptr %4, align 4
  %10 = fsub float %8, %9
  store float %10, ptr %6, align 4
  %11 = getelementptr inbounds i8, ptr %2, i64 4
  %12 = load float, ptr %11, align 4
  %13 = getelementptr inbounds i8, ptr %4, i64 4
  %14 = load float, ptr %13, align 4
  %15 = fsub float %12, %14
  %16 = getelementptr inbounds i8, ptr %6, i64 4
  store float %15, ptr %16, align 4
  ret i32 1
}